; Function Attrs: mustprogress uwtable
define noundef i32 @_ZN6icu_7716BytesTrieBuilder17writeElementUnitsEiii(ptr noundef nonnull align 8 captures(none) dereferenceable(56) %0, i32 noundef %1, i32 noundef %2, i32 noundef %3) unnamed_addr #1 align 2 {
_ZNK6icu_7716BytesTrieElement9getStringERKNS_10CharStringE.exit:
  %4 = getelementptr inbounds nuw i8, ptr %0, i64 24
  %5 = load ptr, ptr %4, align 8, !tbaa !30
  %6 = sext i32 %1 to i64
  %7 = getelementptr inbounds %"class.icu_77::BytesTrieElement", ptr %5, i64 %6
  %8 = getelementptr inbounds nuw i8, ptr %0, i64 16
  %9 = load ptr, ptr %8, align 8, !tbaa !23
  %10 = load i32, ptr %7, align 4, !tbaa !17
  %11 = load ptr, ptr %9, align 8, !tbaa !3
  %.012.i.p = tail call i32 @llvm.abs.i32(i32 %10, i1 false)
  %.012.i = add nuw i32 %.012.i.p, 1
  %12 = zext nneg i32 %.012.i to i64
  %13 = getelementptr inbounds nuw i8, ptr %11, i64 %12
  %14 = sext i32 %2 to i64
  %15 = getelementptr inbounds i8, ptr %13, i64 %14
  %16 = getelementptr inbounds nuw i8, ptr %0, i64 52
  %17 = load i32, ptr %16, align 4, !tbaa !32
  %18 = add nsw i32 %17, %3
  %19 = getelementptr inbounds nuw i8, ptr %0, i64 40
  %20 = load ptr, ptr %19, align 8, !tbaa !31
  %21 = icmp eq ptr %20, null
  br i1 %21, label %_ZN6icu_7716BytesTrieBuilder5writeEPKci.exit, label %22

22:                                               ; preds = %_ZNK6icu_7716BytesTrieElement9getStringERKNS_10CharStringE.exit
  %23 = getelementptr inbounds nuw i8, ptr %0, i64 48
  %24 = load i32, ptr %23, align 8, !tbaa !35
  %25 = icmp sgt i32 %18, %24
  br i1 %25, label %.preheader.i.i, label %_ZN6icu_7716BytesTrieBuilder14ensureCapacityEi.exit.thread7.i

.preheader.i.i:                                   ; preds = %22, %.preheader.i.i
  %.013.i.i = phi i32 [ %26, %.preheader.i.i ], [ %24, %22 ]
  %26 = shl nsw i32 %.013.i.i, 1
  %.not.i.i = icmp sgt i32 %26, %18
  br i1 %.not.i.i, label %27, label %.preheader.i.i, !llvm.loop !60

27:                                               ; preds = %.preheader.i.i
  %28 = sext i32 %26 to i64
  %29 = tail call noalias ptr @uprv_malloc_77(i64 noundef %28) #20
  %30 = icmp eq ptr %29, null
  br i1 %30, label %_ZN6icu_7716BytesTrieBuilder14ensureCapacityEi.exit.thread10.i, label %_ZN6icu_7716BytesTrieBuilder14ensureCapacityEi.exit.i

_ZN6icu_7716BytesTrieBuilder14ensureCapacityEi.exit.thread10.i: ; preds = %27
  %31 = load ptr, ptr %19, align 8, !tbaa !31
  tail call void @uprv_free_77(ptr noundef %31)
  store ptr null, ptr %19, align 8, !tbaa !31
  store i32 0, ptr %23, align 8, !tbaa !35
  br label %_ZN6icu_7716BytesTrieBuilder5writeEPKci.exit

_ZN6icu_7716BytesTrieBuilder14ensureCapacityEi.exit.i: ; preds = %27
  %32 = load i32, ptr %16, align 4, !tbaa !32
  %33 = sub nsw i32 %26, %32
  %34 = sext i32 %33 to i64
  %35 = getelementptr inbounds i8, ptr %29, i64 %34
  %36 = load ptr, ptr %19, align 8, !tbaa !31
  %37 = load i32, ptr %23, align 8, !tbaa !35
  %38 = sub nsw i32 %37, %32
  %39 = sext i32 %38 to i64
  %40 = getelementptr inbounds i8, ptr %36, i64 %39
  %41 = sext i32 %32 to i64
  tail call void @llvm.memcpy.p0.p0.i64(ptr nonnull align 1 %35, ptr align 1 %40, i64 %41, i1 false)
  tail call void @uprv_free_77(ptr noundef %36)
  store ptr %29, ptr %19, align 8, !tbaa !31
  store i32 %26, ptr %23, align 8, !tbaa !35
  br label %_ZN6icu_7716BytesTrieBuilder14ensureCapacityEi.exit.thread7.i

_ZN6icu_7716BytesTrieBuilder14ensureCapacityEi.exit.thread7.i: ; preds = %_ZN6icu_7716BytesTrieBuilder14ensureCapacityEi.exit.i, %22
  %42 = phi i32 [ %24, %22 ], [ %26, %_ZN6icu_7716BytesTrieBuilder14ensureCapacityEi.exit.i ]
  %43 = phi ptr [ %20, %22 ], [ %29, %_ZN6icu_7716BytesTrieBuilder14ensureCapacityEi.exit.i ]
  store i32 %18, ptr %16, align 4, !tbaa !32
  %44 = sub nsw i32 %42, %18
  %45 = sext i32 %44 to i64
  %46 = getelementptr inbounds i8, ptr %43, i64 %45
  %47 = sext i32 %3 to i64
  tail call void @llvm.memcpy.p0.p0.i64(ptr nonnull align 1 %46, ptr nonnull readonly align 1 %15, i64 %47, i1 false)
  br label %_ZN6icu_7716BytesTrieBuilder5writeEPKci.exit

_ZN6icu_7716BytesTrieBuilder5writeEPKci.exit:     ; preds = %_ZNK6icu_7716BytesTrieElement9getStringERKNS_10CharStringE.exit, %_ZN6icu_7716BytesTrieBuilder14ensureCapacityEi.exit.thread10.i, %_ZN6icu_7716BytesTrieBuilder14ensureCapacityEi.exit.thread7.i
  %48 = load i32, ptr %16, align 4, !tbaa !32
  ret i32 %48
}